(dp1
Vsector
p2
I595
sVcode
p3
I980
sVedg
p4
I774
sVfounder
p5
I902
sVglobal
p6
I194
sVfocus
p7
I782
sVmonth
p8
I38
sVsignific
p9
I493
sVlegal
p10
I571
sVabil
p11
I712
sVfocu
p12
I580
sVgo
p13
I20
sVfollow
p14
I97
sVcompani
p15
I22
sVfanduel
p16
I818
sVdecid
p17
I656
sVtv
p18
I184
sVspin
p19
I797
sVspecif
p20
I459
sVsend
p21
I945
sVarticl
p22
I562
sVcertainli
p23
I964
sVprogram
p24
I740
sVdecis
p25
I433
sVtext
p26
I925
sVleav
p27
I615
sVworth
p28
I425
sVintroduc
p29
I479
sVadapt
p30
I835
sVcase
p31
I245
sVdigit
p32
I246
sVconsum
p33
I401
sVeveri
p34
I163
sVrisk
p35
I480
sVfar
p36
I373
sVsoni
p37
I606
sVrise
p38
I703
sVvoic
p39
I855
sVelectron
p40
I952
sVfan
p41
I455
sVjack
p42
I542
sVgovern
p43
I265
sVoctob
p44
I558
sVword
p45
I806
sVenter
p46
I657
sVimplement
p47
I752
sVcool
p48
I787
sVtri
p49
I195
sVlevel
p50
I262
sVdie
p51
I559
sVbutton
p52
I697
sVlist
p53
I326
sVatlant
p54
I939
sVrace
p55
I450
sVteam
p56
I145
sVsmall
p57
I389
sVround
p58
I506
sVenjoy
p59
I494
sVvehicl
p60
I681
sVproperti
p61
I888
sVhtc
p62
I502
sVnatur
p63
I930
sVdirect
p64
I596
sVsign
p65
I315
sVpast
p66
I616
sVsecond
p67
I182
sVcost
p68
I166
sVvideo
p69
I71
sVearth
p70
I849
sVdownload
p71
I741
sVodd
p72
I726
sVclick
p73
I624
sVeven
p74
I42
sVappear
p75
I543
sVcompar
p76
I495
sVabl
p77
I179
sVjournalist
p78
I895
sVcurrent
p79
I142
sVversion
p80
I539
sVsupplier
p81
I452
sVnew
p82
I2
sVnet
p83
I228
sVappeal
p84
I865
sVever
p85
I271
sVpublic
p86
I434
sVtold
p87
I393
sVimpact
p88
I549
sVfull
p89
I133
sVled
p90
I759
sVdespit
p91
I808
sVgener
p92
I94
sVnever
p93
I282
sVconfer
p94
I788
sVwater
p95
I563
sVentertain
p96
I221
sVlet
p97
I243
sValong
p98
I620
sVbecom
p99
I174
sVsinc
p100
I112
sVvalu
p101
I322
sVsuggest
p102
I727
sVbox
p103
I683
sVgreat
p104
I101
sVproduc
p105
I812
sVahead
p106
I838
sVinvolv
p107
I617
sVbetsoft
p108
I597
sVcasino
p109
I10
sVtechnolog
p110
I54
sVhost
p111
I839
sVeveryon
p112
I587
sVjame
p113
I866
sVamount
p114
I463
sVsocial
p115
I247
sVaction
p116
I481
sVextrem
p117
I889
sVchang
p118
I121
sVtransact
p119
I845
sVchanc
p120
I507
sVyork
p121
I658
sVemploye
p122
I768
sVvia
p123
I222
sVlove
p124
I394
sVcampaign
p125
I819
sVextra
p126
I670
sVwin
p127
I129
sVapp
p128
I74
sVinvestig
p129
I720
sVreleas
p130
I130
sVfamili
p131
I588
sVinstal
p132
I646
sVtotal
p133
I107
sVmobil
p134
I68
sVmarket
p135
I11
sVhighli
p136
I940
sVuse
p137
I6
sVeye
p138
I628
sVdiscus
p139
I581
sVwould
p140
I16
sVcommun
p141
I321
sVunivers
p142
I395
sVvisit
p143
I629
sV3d
p144
I496
sVnext
p145
I168
sVwebsit
p146
I276
sVfall
p147
I602
sVlive
p148
I87
sVcamera
p149
I156
sVcall
p150
I102
sVorganis
p151
I671
sVtaken
p152
I544
sVcarri
p153
I783
sVaustralian
p154
I382
sVstage
p155
I880
sVtype
p156
I568
sVtell
p157
I519
sVtoday
p158
I230
sVcapit
p159
I784
sVclub
p160
I520
sVpeopl
p161
I36
sVfreelanc
p162
I965
sVrelat
p163
I263
sVimpress
p164
I903
sVaward
p165
I287
sVenhanc
p166
I813
sVrecal
p167
I981
sVphone
p168
I23
sVtrain
p169
I427
sVport
p170
I896
sVknown
p171
I569
sVgambl
p172
I15
sVhold
p173
I241
sVeffort
p174
I881
sVmust
p175
I560
sVtown
p176
I666
sVaccount
p177
I301
sVjoin
p178
I508
sVroom
p179
I551
sVhour
p180
I319
sVhous
p181
I456
sVcar
p182
I105
sVwork
p183
I21
sVuniqu
p184
I482
sVremain
p185
I333
sVvega
p186
I407
sVlearn
p187
I415
sVmeet
p188
I416
sVcontrol
p189
I175
sVclaim
p190
I423
sVfavourit
p191
I814
sVgizmodo
p192
I798
sVstream
p193
I636
sVgive
p194
I99
sVprocess
p195
I211
sVchalleng
p196
I576
sVtax
p197
I207
sVaccept
p198
I941
sVhigh
p199
I118
sVwant
p200
I53
sVincom
p201
I760
sVonlin
p202
I9
sVdavid
p203
I735
sVattract
p204
I909
sVnearli
p205
I974
sVhuge
p206
I753
sVnyx
p207
I254
sVcours
p208
I357
sVend
p209
I69
sVgoal
p210
I584
sVsecur
p211
I219
sVrather
p212
I513
sVanoth
p213
I212
sVtravel
p214
I728
sVeuropean
p215
I692
sVwrite
p216
I418
sValway
p217
I238
sVanyon
p218
I856
sVanswer
p219
I991
sVinstead
p220
I607
sVsimpl
p221
I649
sVchri
p222
I354
sVupdat
p223
I428
sVdual
p224
I975
sVmap
p225
I630
sVproduct
p226
I34
sVmay
p227
I80
sVstop
p228
I521
sVpresid
p229
I419
sVplaytech
p230
I345
sVdate
p231
I530
sVcourt
p232
I637
sVlaw
p233
I300
sVdata
p234
I93
sVgrow
p235
I289
sVaverag
p236
I684
sVman
p237
I531
sVhandl
p238
I992
sVshort
p239
I820
sVattempt
p240
I867
sVpractic
p241
I946
sVthird
p242
I358
sVhappi
p243
I850
sVlight
p244
I375
sVgrant
p245
I736
sVamaya
p246
I396
sVlost
p247
I868
sVthink
p248
I72
sVissu
p249
I132
sVreceiv
p250
I312
sVchief
p251
I497
sVmaintain
p252
I982
sVcombin
p253
I310
sVblock
p254
I993
sVallow
p255
I84
sVparti
p256
I351
sVexclus
p257
I631
sVfacebook
p258
I742
sVazur
p259
I659
sVorder
p260
I258
sVtalk
p261
I362
sVorigin
p262
I429
sVhelp
p263
I85
sVfantasi
p264
I376
sVoffici
p265
I366
sVmove
p266
I172
sVapprov
p267
I585
sVmajor
p268
I193
sVgalaxi
p269
I528
sVtrade
p270
I509
sVincreas
p271
I70
sVpassion
p272
I761
sVlondon
p273
I809
sVleft
p274
I685
sVequip
p275
I958
sVstill
p276
I88
sVperfect
p277
I698
sVdivis
p278
I769
sVstyle
p279
I953
sVle
p280
I316
sVgroup
p281
I49
sVthank
p282
I483
sVfit
p283
I472
sVla
p284
I554
sVpolici
p285
I959
sVc
I882
sVfix
p286
I672
sVbetter
p287
I155
sVplatform
p288
I89
sVwindow
p289
I307
sVintralot
p290
I770
sVmain
p291
I693
sVmight
p292
I267
sVeasier
p293
I840
sVnon
p294
I618
sVgood
p295
I90
sVreturn
p296
I589
sVceo
p297
I83
sVfinanci
p298
I329
sVoveral
p299
I754
sVye
p300
I960
sViniti
p301
I514
sVnation
p302
I299
sVbreak
p303
I632
sVmention
p304
I961
sVhalf
p305
I457
sVfront
p306
I638
sVday
p307
I47
sVbank
p308
I510
sVchoic
p309
I699
sVterm
p310
I206
sVname
p311
I327
sVanyth
p312
I503
sVedit
p313
I437
sVdrop
p314
I467
sVsmartphon
p315
I377
sVsepar
p316
I857
sVeasili
p317
I890
sVfebruari
p318
I603
sVmode
p319
I743
sV6m
p320
I966
sVfound
p321
I308
sVwent
p322
I564
sVquarter
p323
I374
sVside
p324
I468
sVmean
p325
I135
sVel
p326
I721
sVreplac
p327
I504
sVindividu
p328
I913
sVhard
p329
I473
sVcontinu
p330
I103
sVrealli
p331
I110
sVprocessor
p332
I823
sVvote
p333
I737
sVconnect
p334
I119
sVyear
p335
I1
sVhappen
p336
I348
sVcommiss
p337
I302
sVevent
p338
I131
sVspecial
p339
I633
sVwager
p340
I572
sVnetwork
p341
I173
sVspace
p342
I281
sVprofit
p343
I255
sVmiss
p344
I789
sVmonitor
p345
I897
sVpublish
p346
I639
sVresearch
p347
I380
sVcontent
p348
I104
sVadjust
p349
I824
sVhill
p350
I186
sVinternet
p351
I236
sVgot
p352
I295
sVsensor
p353
I825
sVcommon
p354
I910
sVmodel
p355
I223
sVqualifi
p356
I914
sVearlier
p357
I744
sVinsid
p358
I409
sVadvanc
p359
I686
sVregulatori
p360
I771
sVupon
p361
I904
sVmillion
p362
I252
sVsituat
p363
I954
sVgiven
p364
I474
sVfree
p365
I171
sVstandard
p366
I422
sVreason
p367
I273
sVbase
p368
I46
sVbeliev
p369
I324
sVplea
p370
I532
sVusual
p371
I846
sVask
p372
I328
sVprincess
p373
I967
sVcard
p374
I341
sVcare
p375
I352
sVdelight
p376
I858
sVlaunch
p377
I63
sVcould
p378
I56
sVpictur
p379
I614
sVput
p380
I224
sVbritish
p381
I883
sVkeep
p382
I154
sVthing
p383
I62
sVamerican
p384
I847
sVenforc
p385
I968
sVplace
p386
I96
sVoutsid
p387
I931
sViphon
p388
I39
sVretail
p389
I368
sVinteract
p390
I298
sVsouth
p391
I869
sVfirst
p392
I24
sVoper
p393
I3
sVsoftwar
p394
I323
sVrang
p395
I231
sVmr
p396
I926
sVfeel
p397
I304
sVqualiti
p398
I296
sVnumber
p399
I100
sVrank
p400
I775
sVone
p401
I983
sVacquisit
p402
I288
sValreadi
p403
I192
sVdone
p404
I486
sVmessag
p405
I555
sVowner
p406
I694
sVagre
p407
I417
sVopen
p408
I139
sVmultipl
p409
I830
sVsize
p410
I608
sVdiffer
p411
I108
sVassoci
p412
I369
sVtop
p413
I215
sVcontact
p414
I815
sVsystem
p415
I58
sVleast
p416
I464
sVciti
p417
I251
sVstori
p418
I487
sVphysic
p419
I969
sVstatement
p420
I565
sVilleg
p421
I621
sVtermin
p422
I729
sVlicenc
p423
I261
sVjohn
p424
I932
sVfinal
p425
I342
sVstore
p426
I336
sVlow
p427
I687
sVlot
p428
I176
sVrelationship
p429
I915
sVespeci
p430
I609
sVseason
p431
I340
sVtool
p432
I402
sVhotel
p433
I790
sVpark
p434
I984
sVtook
p435
I673
sVbiggest
p436
I650
sVpart
p437
I123
sVreview
p438
I438
sVsold
p439
I955
sVwhite
p440
I730
sVserv
p441
I772
sVwide
p442
I598
sVtrek
p443
I458
sVtarget
p444
I776
sVprovid
p445
I17
sVremov
p446
I705
sVrate
p447
I349
sVcharact
p448
I590
sVproject
p449
I440
sVmatter
p450
I706
sVfriend
p451
I498
sVposit
p452
I208
sVdesign
p453
I117
sVsomeon
p454
I577
sVlisten
p455
I848
sVbet
p456
I12
sVseri
p457
I187
sVpre
p458
I836
sVmini
p459
I976
sVcomput
p460
I445
sVbwinparti
p461
I550
sVmacau
p462
I346
sVjanuari
p463
I810
sVpro
p464
I731
sVpartnership
p465
I220
sVmind
p466
I870
sVglass
p467
I898
sVrobot
p468
I891
sVpackag
p469
I970
sVsay
p470
I81
sVbuy
p471
I190
sVgala
p472
I762
sVdeliv
p473
I285
sVneed
p474
I27
sVseen
p475
I435
sVseem
p476
I290
sVturn
p477
I386
sVsaw
p478
I859
sVoption
p479
I256
sVsell
p480
I552
sVcaus
p481
I647
sVengin
p482
I622
sVbuilt
p483
I446
sVinform
p484
I185
sVself
p485
I851
sVswitch
p486
I892
sVclient
p487
I777
sVnote
p488
I359
sValso
p489
I4
sVexampl
p490
I522
sVbuild
p491
I253
sVenviron
p492
I674
sVjuli
p493
I534
sVchannel
p494
I355
sVexcit
p495
I259
sVplay
p496
I60
sVsure
p497
I257
sVdistribut
p498
I911
sVthough
p499
I197
sVtrack
p500
I439
sVprice
p501
I158
sVlicens
p502
I314
sVreach
p503
I390
sVpaid
p504
I916
sVpoker
p505
I111
sVwire
p506
I994
sVplan
p507
I55
sVpair
p508
I871
sVconfid
p509
I852
sVamerica
p510
I905
sVpayment
p511
I294
sVcharg
p512
I170
sVtradit
p513
I893
sVdemand
p514
I745
sVcommerci
p515
I860
sVclear
p516
I408
sVlater
p517
I515
sVcover
p518
I499
sVsale
p519
I266
sVface
p520
I226
sVtech
p521
I625
sVhear
p522
I682
sVpropos
p523
I372
sVaway
p524
I430
sVfact
p525
I460
sVgain
p526
I884
sVshop
p527
I383
sVwynn
p528
I971
sVshow
p529
I67
sVlightn
p530
I807
sVbring
p531
I292
sVportfolio
p532
I634
sVnevada
p533
I640
sVfind
p534
I113
sVground
p535
I799
sVslot
p536
I161
sVaccess
p537
I201
sVfootbal
p538
I277
sVlocat
p539
I453
sVacquir
p540
I488
sVpretti
p541
I379
sVmusic
p542
I371
sVmerger
p543
I540
sVexplain
p544
I746
sVmovi
p545
I397
sVsolut
p546
I160
sVstate
p547
I40
sVtechnic
p548
I995
sVmanufactur
p549
I688
sVbusi
p550
I32
sVblack
p551
I641
sVphoto
p552
I216
sVlocal
p553
I353
sVhope
p554
I441
sVipad
p555
I947
sVpredict
p556
I876
sVhit
p557
I689
sVcontribut
p558
I707
sVvariou
p559
I948
sVget
p560
I14
sVdf
p561
I612
sVfinanc
p562
I747
sVwatch
p563
I141
sVkind
p564
I604
sVsoon
p565
I738
sVprogress
p566
I791
sVreport
p567
I65
sVrequir
p568
I225
sVreveal
p569
I573
sVearn
p570
I906
sVenabl
p571
I469
sVheld
p572
I816
sVheadphon
p573
I188
sVemail
p574
I586
sVremot
p575
I489
sVbad
p576
I722
sVsimpli
p577
I800
sVintegr
p578
I232
sVladbrok
p579
I217
sVban
p580
I763
sVx
I877
sVseptemb
p581
I146
sVview
p582
I404
sVset
p583
I91
sVhigher
p584
I831
sVsee
p585
I43
sVresult
p586
I124
sVrespons
p587
I227
sVfail
p588
I977
sVclose
p589
I233
sVsport
p590
I19
sVbest
p591
I79
sVconcern
p592
I956
sVsaid
p593
I5
sVextend
p594
I962
sVexpert
p595
I933
sVinnov
p596
I235
sVsometh
p597
I180
sVfigur
p598
I305
sVpc
p599
I917
sVimport
p600
I199
sVexperi
p601
I109
sVapproach
p602
I755
sVacross
p603
I151
sVaccord
p604
I239
sVaugust
p605
I591
sVparent
p606
I756
sVscreen
p607
I164
sVextens
p608
I878
sVjob
p609
I405
sVentir
p610
I517
sVkey
p611
I330
sVnews
p612
I436
sVadvertis
p613
I461
sVcome
p614
I51
sVminut
p615
I660
sVaddit
p616
I240
sVbodi
p617
I739
sVprotect
p618
I403
sVtoward
p619
I921
sVlast
p620
I29
sVtablet
p621
I535
sVtrump
p622
I963
sVhowev
p623
I198
sVannual
p624
I841
sVcontract
p625
I832
sVapril
p626
I556
sVcommitte
p627
I907
sVswim
p628
I792
sVcountri
p629
I278
sVshare
p630
I86
sVcom
p631
I153
sVjersey
p632
I249
sVcomment
p633
I442
sVamong
p634
I713
sVco
p635
I700
sVpoint
p636
I125
sVperiod
p637
I286
sVexcept
p638
I912
sVbatteri
p639
I264
sVrespect
p640
I757
sVtrust
p641
I853
sVbingo
p642
I675
sV5m
p643
I708
sVstrong
p644
I426
sVcoupl
p645
I942
sVresort
p646
I297
sVsportsbook
p647
I524
sVdevic
p648
I78
sVoffic
p649
I191
sVcent
p650
I793
sVmark
p651
I525
sVrevenu
p652
I33
sVmuch
p653
I66
sVinterest
p654
I244
sVbasic
p655
I732
sVmonthli
p656
I701
sVwait
p657
I785
sV7m
p658
I985
sVstrategi
p659
I516
sVfirm
p660
I213
sVlife
p661
I169
sVpremier
p662
I764
sVregul
p663
I127
sVfire
p664
I801
sVimag
p665
I183
sVsearch
p666
I826
sVupgrad
p667
I758
sVfund
p668
I599
sVunderstand
p669
I690
sVtogeth
p670
I475
sVchild
p671
I500
sVcatch
p672
I986
sVrepres
p673
I545
sVbetconstruct
p674
I794
sVformer
p675
I765
sVpresent
p676
I387
sVsound
p677
I283
sVmulti
p678
I842
sVlook
p679
I30
sVservic
p680
I45
sVbill
p681
I152
sVcash
p682
I347
sVair
p683
I367
sVaim
p684
I918
sVmatch
p685
I384
sVusb
p686
I899
sVfun
p687
I714
sVdecreas
p688
I894
sVregion
p689
I466
sVpack
p690
I922
sVearli
p691
I610
sVpurchas
p692
I431
sVengag
p693
I766
sVadvantag
p694
I987
sValmost
p695
I490
sVcentr
p696
I748
sVtabl
p697
I484
sVsite
p698
I196
sVactiv
p699
I237
sVplayer
p700
I26
sVunit
p701
I557
sVio
p702
I837
sVpartner
p703
I143
sVsever
p704
I470
sVpas
p705
I611
sVdevelop
p706
I37
sVauthor
p707
I410
sVperform
p708
I234
sVpay
p709
I144
sVmake
p710
I13
sVmayb
p711
I691
sVmember
p712
I561
sVfood
p713
I642
sVspeaker
p714
I443
sVlargest
p715
I817
sVandroid
p716
I350
sVdocument
p717
I957
sVcomplet
p718
I134
sVweek
p719
I138
sVcompetit
p720
I338
sVsafe
p721
I978
sVhttp
p722
I605
sVimagin
p723
I988
sVpick
p724
I663
sVdriver
p725
I900
sVeffect
p726
I311
sVhand
p727
I284
sVdirector
p728
I148
sVcapabl
p729
I566
sVmoment
p730
I872
sV000
p731
I147
sVuser
p732
I165
sVmani
p733
I120
sVimmedi
p734
I861
sVstudi
p735
I643
sVexpand
p736
I485
sVrecent
p737
I189
sVlower
p738
I927
sVtask
p739
I979
sVwhole
p740
I652
sVcolour
p741
I778
sVwell
p742
I41
sVthought
p743
I749
sVperson
p744
I260
sVwithout
p745
I242
sVcommand
p746
I996
sVexpens
p747
I843
sVchoos
p748
I574
sVprogramm
p749
I943
sVeveryth
p750
I339
sVaudio
p751
I476
sVspend
p752
I626
sVlegisl
p753
I773
sVlatest
p754
I210
sVexecut
p755
I272
sVmoney
p756
I162
sVrest
p757
I873
sVfoot
p758
I934
sVesport
p759
I935
sVhuman
p760
I676
sVbehind
p761
I709
sVtouch
p762
I613
sVepisod
p763
I715
sVskill
p764
I802
sVspeed
p765
I306
sVyet
p766
I398
sVprevious
p767
I811
sVbegin
p768
I600
sVweb
p769
I451
sVcut
p770
I844
sVeurop
p771
I803
sVeasi
p772
I465
sVcup
p773
I723
sVdeclin
p774
I677
sVsky
p775
I578
sVstudio
p776
I879
sVlittl
p777
I149
sVdesktop
p778
I949
sVblog
p779
I653
sVadd
p780
I411
sVcaesar
p781
I661
sVboard
p782
I279
sVigam
p783
I901
sVappli
p784
I570
sVsave
p785
I360
sVapproxim
p786
I724
sVsmart
p787
I274
sVtake
p788
I35
sVreal
p789
I200
sVapplic
p790
I385
sVaustralia
p791
I167
sVmarch
p792
I538
sVaround
p793
I77
sVtelstra
p794
I678
sVbookmak
p795
I412
sVread
p796
I334
sVbig
p797
I214
sVregard
p798
I936
sVcredit
p799
I937
sVpiec
p800
I928
sVgame
p801
I0
sVleagu
p802
I331
sVknow
p803
I76
sVpress
p804
I704
sVworld
p805
I64
sVbit
p806
I378
sVloss
p807
I592
sVlike
p808
I7
sVsuccess
p809
I177
sVincred
p810
I919
sVcorpor
p811
I651
sVnoth
p812
I679
sVcollect
p813
I593
sVbenefit
p814
I444
sVsingl
p815
I477
sVlose
p816
I767
sVpopular
p817
I471
sVmanag
p818
I61
sVpremium
p819
I944
sVwww
p820
I733
sVright
p821
I114
sVold
p822
I413
sVoften
p823
I579
sVdeal
p824
I73
sVsharehold
p825
I623
sVtwitter
p826
I795
sVback
p827
I82
sVintern
p828
I248
sVgrowth
p829
I178
sVsen
p830
I667
sVhome
p831
I106
sVserver
p832
I796
sVgross
p833
I526
sVpokerstar
p834
I447
sVfeder
p835
I862
sVlead
p836
I140
sVconfirm
p837
I320
sVestablish
p838
I627
sVnormal
p839
I567
sVdefinit
p840
I786
sVachiev
p841
I644
sVper
p842
I128
sVlarg
p843
I533
sVselect
p844
I546
sVcondit
p845
I702
sVleader
p846
I989
sVeither
p847
I529
sVmachin
p848
I270
sVcore
p849
I511
sVplu
p850
I293
sVpreviou
p851
I553
sVrun
p852
I115
sVpower
p853
I75
sVquit
p854
I750
sVagreement
p855
I303
sVpaper
p856
I950
sVstep
p857
I356
sVpromot
p858
I406
sValthough
p859
I527
sVfulli
p860
I804
sVchairman
p861
I575
sVpost
p862
I202
sVsuper
p863
I505
sVpanel
p864
I854
sVactual
p865
I229
sVbetfair
p866
I582
sVcoral
p867
I291
sVswimmer
p868
I938
sVpage
p869
I654
sVstand
p870
I512
sVact
p871
I414
sVcommit
p872
I716
sVindustri
p873
I44
sVother
p874
I695
sVroad
p875
I645
sVown
p876
I655
sVeffici
p877
I923
sVenough
p878
I361
sVwithin
p879
I317
sVprofession
p880
I668
sVautomat
p881
I805
sVdue
p882
I448
sVensur
p883
I420
sVopportun
p884
I313
sVannounc
p885
I52
sVstorag
p886
I833
sVebitda
p887
I779
sVfast
p888
I662
sVcabl
p889
I827
sVarea
p890
I325
sVsupport
p891
I126
sVcaptur
p892
I885
sVquestion
p893
I536
sVlong
p894
I159
sVcustom
p895
I50
sVavail
p896
I92
sVstart
p897
I98
sVappl
p898
I31
sVinclud
p899
I18
sVway
p900
I48
sVsuit
p901
I669
sVforward
p902
I344
sVlotteri
p903
I181
sVfunction
p904
I548
sVreduc
p905
I863
sVhead
p906
I280
sVmedium
p907
I332
sVform
p908
I337
sVoffer
p909
I25
sVforc
p910
I268
sVgvc
p911
I635
sVbrand
p912
I122
sVrecommend
p913
I717
sVidea
p914
I391
sVwireless
p915
I392
sVcloud
p916
I648
sVlink
p917
I518
sVmeasur
p918
I834
sVline
p919
I203
sVbluetooth
p920
I751
sVtrue
p921
I501
sVhd
p922
I908
sVfaster
p923
I929
sVelectr
p924
I864
sVmade
p925
I95
sVpossibl
p926
I250
sVwhether
p927
I343
sVscientif
p928
I449
sVplanet
p929
I972
sVrecord
p930
I218
sVlimit
p931
I318
sVuk
p932
I59
sVhighlight
p933
I990
sVproblem
p934
I275
sVquickli
p935
I874
sVsimilar
p936
I619
sVdisplay
p937
I421
sVexpect
p938
I137
sVfeatur
p939
I57
sVad
p940
I116
sVcreat
p941
I136
sVcertain
p942
I821
sVhandset
p943
I822
sVtournament
p944
I875
sVlegalis
p945
I718
sVdoctor
p946
I924
sVdrive
p947
I150
sVnovemb
p948
I491
sVsponsor
p949
I594
sVexist
p950
I370
sVfile
p951
I664
sVimprov
p952
I269
sVcheck
p953
I454
sVfilm
p954
I388
sVprobabl
p955
I424
sVsurpris
p956
I973
sVgoogl
p957
I462
sVtitl
p958
I492
sVstake
p959
I680
sVexcel
p960
I886
sVdetail
p961
I432
sVvirtual
p962
I335
sVpaddi
p963
I601
sVbook
p964
I547
sVrole
p965
I399
sVfutur
p966
I209
sVrememb
p967
I523
sVvarieti
p968
I951
sVtest
p969
I363
sVroll
p970
I997
sVdraftk
p971
I828
sVstar
p972
I204
sVaffili
p973
I537
sVclass
p974
I710
sVjune
p975
I400
sVstay
p976
I665
sVwilliam
p977
I205
sVconsid
p978
I364
sVdoubl
p979
I998
sVweekend
p980
I719
sVpool
p981
I920
sVago
p982
I711
sVland
p983
I381
sVe
I478
sVlonger
p984
I780
sVsamsung
p985
I157
sVinvest
p986
I365
sVage
p987
I725
sVrule
p988
I541
sVmicrosoft
p989
I734
sV4m
p990
I887
sVu
I28
sVcame
p991
I696
sVpotenti
p992
I309
sVtime
p993
I8
sVpush
p994
I829
sVdecemb
p995
I781
sVdaili
p996
I583
s.